; Function Attrs: nounwind uwtable
define dso_local range(i32 0, 2) i32 @zslLexValueLteMax(ptr noundef %0, ptr noundef readonly captures(none) %1) local_unnamed_addr #0 {
  %3 = getelementptr inbounds nuw i8, ptr %1, i64 20
  %4 = load i32, ptr %3, align 4, !tbaa !67
  %.not = icmp eq i32 %4, 0
  %5 = getelementptr inbounds nuw i8, ptr %1, i64 8
  %6 = load ptr, ptr %5, align 8, !tbaa !68
  %7 = icmp eq ptr %0, %6
  br i1 %.not, label %21, label %8

8:                                                ; preds = %2
  br i1 %7, label %sdscmplex.exit, label %9

9:                                                ; preds = %8
  %10 = load ptr, ptr getelementptr inbounds nuw (i8, ptr @shared, i64 81904), align 8, !tbaa !61
  %11 = icmp eq ptr %0, %10
  br i1 %11, label %sdscmplex.exit, label %12

12:                                               ; preds = %9
  %13 = load ptr, ptr getelementptr inbounds nuw (i8, ptr @shared, i64 81912), align 8, !tbaa !64
  %14 = icmp eq ptr %6, %13
  br i1 %14, label %sdscmplex.exit, label %15

15:                                               ; preds = %12
  %16 = icmp eq ptr %0, %13
  %17 = icmp eq ptr %6, %10
  %or.cond.i = or i1 %17, %16
  br i1 %or.cond.i, label %sdscmplex.exit, label %18

18:                                               ; preds = %15
  %19 = tail call i32 @sdscmp(ptr noundef %0, ptr noundef %6) #18
  %20 = lshr i32 %19, 31
  br label %sdscmplex.exit

21:                                               ; preds = %2
  br i1 %7, label %sdscmplex.exit, label %22

22:                                               ; preds = %21
  %23 = load ptr, ptr getelementptr inbounds nuw (i8, ptr @shared, i64 81904), align 8, !tbaa !61
  %24 = icmp eq ptr %0, %23
  br i1 %24, label %sdscmplex.exit, label %25

25:                                               ; preds = %22
  %26 = load ptr, ptr getelementptr inbounds nuw (i8, ptr @shared, i64 81912), align 8, !tbaa !64
  %27 = icmp eq ptr %6, %26
  br i1 %27, label %sdscmplex.exit, label %28

28:                                               ; preds = %25
  %29 = icmp eq ptr %0, %26
  %30 = icmp eq ptr %6, %23
  %or.cond.i5 = or i1 %30, %29
  br i1 %or.cond.i5, label %sdscmplex.exit, label %31

31:                                               ; preds = %28
  %32 = tail call i32 @sdscmp(ptr noundef %0, ptr noundef %6) #18
  %33 = icmp slt i32 %32, 1
  %34 = zext i1 %33 to i32
  br label %sdscmplex.exit

sdscmplex.exit:                                   ; preds = %31, %28, %25, %22, %21, %18, %15, %12, %9, %8
  %35 = phi i32 [ %20, %18 ], [ 0, %8 ], [ 1, %12 ], [ 1, %9 ], [ 0, %15 ], [ %34, %31 ], [ 1, %21 ], [ 1, %25 ], [ 1, %22 ], [ 0, %28 ]
  ret i32 %35
}